ccopy_reg
_reconstructor
p0
(csets
Set
p1
c__builtin__
object
p2
Ntp3
Rp4
((dp5
S'and'
p6
I01
sS'all'
p7
I01
sS'would'
p8
I01
sS'just'
p9
I01
sS'do'
p10
I01
sS'bot'
p11
I01
sS'is'
p12
I01
sS'it'
p13
I01
sS'an'
p14
I01
sS'as'
p15
I01
sS'have'
p16
I01
sS'in'
p17
I01
sS'your'
p18
I01
sS'if'
p19
I01
sS'what'
p20
I01
sS'from'
p21
I01
sS'for'
p22
I01
sS'there'
p23
I01
sS'to'
p24
I01
sS'com'
p25
I01
sS'https'
p26
I01
sS'you'
p27
I01
sS'was'
p28
I01
sS'can'
p29
I01
sS'be'
p30
I01
sS'we'
p31
I01
sS'that'
p32
I01
sS'db'
p33
I01
sS'but'
p34
I01
sS'yeah'
p35
I01
sS'not'
p36
I01
sS'using'
p37
I01
sS'one'
p38
I01
sS'with'
p39
I01
sS'like'
p40
I01
sS'a'
p41
I01
sS'on'
p42
I01
sS'about'
p43
I01
sS'slack'
p44
I01
sS'i'
p45
I01
sS'of'
p46
I01
sS'could'
p47
I01
sS'm'
p48
I01
sS'this'
p49
I01
sS's'
p50
I01
sS'so'
p51
I01
sS't'
p52
I01
sS'the'
p53
I01
sS'my'
p54
I01
sS'or'
p55
I01
stp56
b.ccopy_reg
_reconstructor
p0
(cAIMA
DefaultDict
p1
c__builtin__
dict
p2
(dp3
S'limited'
p4
I1
sS'skeleton'
p5
I1
sS'whoops'
p6
I1
sS'sqlite'
p7
I3
sS'code'
p8
I12
sS'talks'
p9
I1
sS'integrity'
p10
I1
sS'towns'
p11
I1
sS'consider'
p12
I1
sS'trolley'
p13
I1
sS'referring'
p14
I1
sS'bare'
p15
I1
sS'tweet'
p16
I6
sS'dania'
p17
I1
sS'intros'
p18
I2
sS'sorry'
p19
I2
sS'worth'
p20
I2
sS'sound'
p21
I1
sS'very'
p22
I3
sS'alternatives'
p23
I1
sS'faq'
p24
I1
sS'hubot'
p25
I5
sS'systemctl'
p26
I1
sS'every'
p27
I2
sS'winning'
p28
I1
sS'difference'
p29
I1
sS'bringing'
p30
I1
sS'common'
p31
I1
sS'supports'
p32
I1
sS'list'
p33
I15
sS'solution'
p34
I3
sS'rabbitmq'
p35
I3
sS'integrated'
p36
I1
sS'small'
p37
I5
sS'enjoy'
p38
I2
sS'instagram'
p39
I2
sS'sync'
p40
I2
sS'across'
p41
I1
sS'likely'
p42
I3
sS'invention'
p43
I1
sS'design'
p44
I1
sS'plugins'
p45
I2
sS'link'
p46
I1
sS'shrugging'
p47
I1
sS'machines'
p48
I1
sS'even'
p49
I3
sS'consumers'
p50
I2
sS'sum'
p51
I1
sS'duplicate'
p52
I1
sS'adhoc'
p53
I1
sS'version'
p54
I2
sS'new'
p55
I15
sS'net'
p56
I2
sS'ever'
p57
I1
sS'outgoing'
p58
I3
sS'full'
p59
I2
sS'hash'
p60
I1
sS'behavior'
p61
I1
sS'tags'
p62
I2
sS'never'
p63
I2
sS'meh'
p64
I1
sS'here'
p65
I12
sS'codebase'
p66
I1
sS'kimi'
p67
I1
sS'active'
p68
I1
sS'_bow_'
p69
I1
sS'publisher'
p70
I1
sS'search'
p71
I5
sS'voice'
p72
I1
sS'items'
p73
I3
sS'leaves'
p74
I1
sS'changed'
p75
I2
sS'allows'
p76
I1
sS'reports'
p77
I1
sS'guide'
p78
I1
sS'amount'
p79
I1
sS'published'
p80
I2
sS'spotty'
p81
I1
sS'cause'
p82
I2
sS'via'
p83
I1
sS'replace'
p84
I1
sS'ask'
p85
I1
sS'send'
p86
I2
sS'achievable'
p87
I1
sS'establish'
p88
I1
sS'emoji'
p89
I4
sS'20had'
p90
I2
sS'two'
p91
I7
sS'27lol'
p92
I2
sS'call'
p93
I2
sS'recommend'
p94
I2
sS'type'
p95
I1
sS'typd'
p96
I2
sS'more'
p97
I8
sS'holy'
p98
I2
sS'naive'
p99
I1
sS'haha'
p100
I4
sS'award'
p101
I1
sS'aware'
p102
I1
sS'xl_grid'
p103
I1
sS'tested'
p104
I1
sS'flag'
p105
I1
sS'webbrowser'
p106
I1
sS'stick'
p107
I2
sS'must'
p108
I2
sS'me'
p109
I11
sS'endpoint'
p110
I3
sS'room'
p111
I2
sS'science'
p112
I1
sS'setup'
p113
I3
sS'work'
p114
I13
sS'dev'
p115
I5
sS'categorizing'
p116
I1
sS'ansible'
p117
I2
sS'install'
p118
I1
sS'yup'
p119
I2
sS'root'
p120
I1
sS'example'
p121
I4
sS'scripting'
p122
I1
sS'terminator'
p123
I1
sS'beautiful'
p124
I1
sS'prompt'
p125
I1
sS'give'
p126
I3
sS'suggestions'
p127
I1
sS'accept'
p128
I1
sS'currency'
p129
I1
sS'subelements'
p130
I1
sS'want'
p131
I19
sS'sense'
p132
I1
sS'phrase'
p133
I1
sS'mainstream'
p134
I1
sS'information'
p135
I2
sS'needs'
p136
I3
sS'end'
p137
I2
sS'eng'
p138
I1
sS'vagrant'
p139
I1
sS'feature'
p140
I3
sS'machine'
p141
I6
sS'how'
p142
I13
sS'amazing'
p143
I1
sS'worry'
p144
I1
sS'env'
p145
I1
sS'answer'
p146
I2
sS'c0lmfrmb5'
p147
I1
sS'config'
p148
I2
sS'4s'
p149
I1
sS'goodreads'
p150
I1
sS'simplicity'
p151
I1
sS'abstraction'
p152
I1
sS'okay'
p153
I1
sS'tried'
p154
I2
sS'after'
p155
I5
sS'wrong'
p156
I4
sS'coming'
p157
I3
sS'lat'
p158
I4
sS'fi'
p159
I2
sS'webhooks'
p160
I3
sS'response'
p161
I1
sS'types'
p162
I1
sS'github'
p163
I5
sS'third'
p164
I1
sS'tweeting'
p165
I3
sS'register'
p166
I1
sS'django'
p167
I3
sS'enter'
p168
I1
sS'fan'
p169
I1
sS'make'
p170
I11
sS'feedback'
p171
I1
sS'vars'
p172
I1
sS'over'
p173
I6
sS'soon'
p174
I1
sS'installed'
p175
I5
sS'through'
p176
I7
sS'filters'
p177
I2
sS'replies'
p178
I1
sS'broadway'
p179
I1
sS'chatlio'
p180
I1
sS'before'
p181
I3
sS'25'
p182
I1
sS'26'
p183
I1
sS'27'
p184
I4
sS'20'
p185
I3
sS'22'
p186
I2
sS'somewhere'
p187
I1
sS'fix'
p188
I1
sS'_r'
p189
I1
sS'imo'
p190
I1
sS'writing'
p191
I1
sS'better'
p192
I6
sS'production'
p193
I4
sS'systems'
p194
I1
sS'weeks'
p195
I1
sS'might'
p196
I11
sS'easier'
p197
I1
sS'inventory'
p198
I1
sS'cofeescript'
p199
I1
sS'then'
p200
I12
sS'coffee'
p201
I1
sS'good'
p202
I10
sS'generously'
p203
I1
sS'ya'
p204
I1
sS'coding'
p205
I1
sS'number'
p206
I1
sS'they'
p207
I9
sS'justwindowsthings'
p208
I1
sS'www12'
p209
I1
sS'several'
p210
I1
sS'nullable'
p211
I2
sS'fully'
p212
I1
sS'queues'
p213
I6
sS'2d'
p214
I4
sS'someone'
p215
I6
sS'reasonable'
p216
I1
sS'2c'
p217
I2
sS'debug'
p218
I1
sS'found'
p219
I1
sS'feeds'
p220
I1
sS'side'
p221
I2
sS'mean'
p222
I3
sS'heavy'
p223
I1
sS'inserts'
p224
I1
sS'everyone'
p225
I2
sS'england'
p226
I1
sS'_simple_smile_'
p227
I5
sS'numeric'
p228
I2
sS'system_service'
p229
I1
sS'hosted'
p230
I3
sS'operation'
p231
I1
sS'array'
p232
I3
sS'really'
p233
I15
sS'fts'
p234
I1
sS'network'
p235
I2
sS'driving'
p236
I2
sS'god'
p237
I1
sS'ha'
p238
I2
sS'since'
p239
I2
sS'unknown'
p240
I3
sS'content'
p241
I1
sS're'
p242
I13
sS'got'
p243
I6
sS'gov'
p244
I1
sS'issue'
p245
I2
sS'love'
p246
I3
sS'timeline'
p247
I1
sS'given'
p248
I3
sS'standard'
p249
I1
sS'reason'
p250
I6
sS'imagine'
p251
I1
sS'put'
p252
I1
sS'wanted'
p253
I5
sS'nytimes'
p254
I1
sS'generate'
p255
I2
sS'clumn'
p256
I1
sS'ms'
p257
I3
sS'shelves'
p258
I1
sS'starts'
p259
I2
sS'messages'
p260
I3
sS'days'
p261
I1
sS'ish'
p262
I1
sS'isn'
p263
I5
sS'w'
p264
I2
sS'enough'
p265
I3
sS'uses'
p266
I2
sS'onto'
p267
I1
sS'user'
p268
I2
sS'feed'
p269
I2
sS'teh'
p270
I1
sS'major'
p271
I1
sS'already'
p272
I8
sS'to_'
p273
I1
sS'feel'
p274
I1
sS'synonymous'
p275
I1
sS'primary'
p276
I1
sS'hearing'
p277
I1
sS'channels'
p278
I1
sS'instances'
p279
I1
sS'cfm'
p280
I1
sS'done'
p281
I3
sS'least'
p282
I2
sS'another'
p283
I8
sS'wasn'
p284
I2
sS'wager'
p285
I1
sS'guess'
p286
I6
sS'service'
p287
I11
sS'smoother'
p288
I1
sS'construct'
p289
I1
sS'master'
p290
I1
sS'too'
p291
I8
sS'passed'
p292
I1
sS'recent'
p293
I1
sS'listed'
p294
I1
sS'option'
p295
I2
sS'et'
p296
I1
sS'tool'
p297
I4
sS'tokens'
p298
I1
sS'somewhat'
p299
I1
sS'believe'
p300
I2
sS'obama'
p301
I1
sS'alternative'
p302
I2
sS'kind'
p303
I6
sS'b'
p304
I2
sS'rampage'
p305
I1
sS'_wink_'
p306
I1
sS'tree'
p307
I1
sS'second'
p308
I1
sS'project'
p309
I2
sS'matter'
p310
I2
sS'didn'
p311
I9
sS'supposed'
p312
I2
sS'misunderstood'
p313
I1
sS'youre'
p314
I1
sS'websocket'
p315
I2
sS'runner'
p316
I1
sS'pass'
p317
I1
sS'mind'
p318
I1
sS'raw'
p319
I1
sS'replicated'
p320
I2
sS'seen'
p321
I2
sS'seem'
p322
I1
sS'confirms'
p323
I1
sS'thought'
p324
I4
sS'releases'
p325
I1
sS'depending'
p326
I1
sS'twitters'
p327
I1
sS'latter'
p328
I2
sS'also'
p329
I7
sS'materials'
p330
I1
sS'snippets'
p331
I1
sS'obviously'
p332
I1
sS'command'
p333
I4
sS'isolates'
p334
I1
sS'towards'
p335
I2
sS'though'
p336
I15
sS'object'
p337
I2
sS'most'
p338
I3
sS'optimized'
p339
I1
sS'_confused_'
p340
I1
sS'plenty'
p341
I1
sS'scripts'
p342
I1
sS'nothing'
p343
I1
sS'peers'
p344
I1
sS'exe'
p345
I1
sS'don'
p346
I12
sS'windows'
p347
I9
sS'consumed'
p348
I1
sS'popularity'
p349
I1
sS'dog'
p350
I1
sS'traditional'
p351
I1
sS'definitely'
p352
I1
sS'tech'
p353
I1
sS'consumer'
p354
I4
sS'consumes'
p355
I1
sS'saying'
p356
I5
sS'ugh'
p357
I2
sS'rtm'
p358
I9
sS'random'
p359
I3
sS'18011'
p360
I1
sS'gauge'
p361
I1
sS'slackhq'
p362
I2
sS'rts'
p363
I1
sS'availability'
p364
I1
sS'access'
p365
I1
sS'parameters'
p366
I1
sS'implementation'
p367
I1
sS'hope'
p368
I1
sS'distributed'
p369
I2
sS'haven'
p370
I1
sS'_on_'
p371
I1
sS'updating'
p372
I1
sS'blanking'
p373
I1
sS'dwlz'
p374
I1
sS'integrate'
p375
I1
sS'yml'
p376
I1
sS'columns'
p377
I1
sS'dm'
p378
I2
sS'template'
p379
I1
sS'wide'
p380
I1
sS'de'
p381
I2
sS'downtime'
p382
I1
sS'report'
p383
I1
sS'during'
p384
I1
sS'reinstall'
p385
I1
sS'restart'
p386
I1
sS'chronological'
p387
I1
sS'querying'
p388
I2
sS'roles'
p389
I1
sS'remove'
p390
I1
sS'twice'
p391
I1
sS'bad'
p392
I3
sS'architecture'
p393
I1
sS'release'
p394
I1
sS'x'
p395
I1
sS'obscure'
p396
I1
sS'_smile_'
p397
I6
sS'respond'
p398
I2
sS'ethical'
p399
I1
sS'set'
p400
I1
sS'reference'
p401
I1
sS'motherboard'
p402
I1
sS'branding'
p403
I1
sS'testing'
p404
I5
sS'toolbet'
p405
I1
sS'see'
p406
I5
sS'decided'
p407
I1
sS'radius'
p408
I3
sS'imho'
p409
I1
sS'overboard'
p410
I1
sS'fail'
p411
I3
sS'close'
p412
I2
sS'tweetbot'
p413
I2
sS'heisenbug'
p414
I1
sS'retweet'
p415
I2
sS'best'
p416
I3
sS'said'
p417
I2
sS'05'
p418
I1
sS'lots'
p419
I1
sS'wow'
p420
I1
sS'currently'
p421
I1
sS'please'
p422
I1
sS'formatted'
p423
I1
sS'libraries'
p424
I2
sS'woo'
p425
I1
sS'future'
p426
I1
sS'hopefully'
p427
I1
sS'probably'
p428
I11
sS'subscript'
p429
I1
sS'approach'
p430
I1
sS'compliment'
p431
I1
sS'discovery'
p432
I1
sS'available'
p433
I4
sS'reddit'
p434
I1
sS'omg'
p435
I2
sS'missing'
p436
I3
sS'javascript'
p437
I1
sS'however'
p438
I1
sS'wi'
p439
I2
sS'add'
p440
I3
sS'interface'
p441
I2
sS'console'
p442
I2
sS'debt'
p443
I1
sS'hours'
p444
I1
sS'last'
p445
I2
sS'hesitant'
p446
I1
sS'fault'
p447
I1
sS'strange'
p448
I4
sS'against'
p449
I1
sS'connection'
p450
I2
sS'receives'
p451
I1
sS'logic'
p452
I2
sS'requests'
p453
I4
sS'argue'
p454
I1
sS'whole'
p455
I2
sS'asked'
p456
I1
sS'load'
p457
I3
sS'liked'
p458
I1
sS'tone'
p459
I1
sS'point'
p460
I4
sS'logged'
p461
I1
sS'community'
p462
I2
sS'linux'
p463
I1
sS'_joy_'
p464
I1
sS'light'
p465
I1
sS'puts'
p466
I3
sS'help'
p467
I1
sS'create'
p468
I3
sS'py'
p469
I1
sS'due'
p470
I1
sS'been'
p471
I4
sS'trigger'
p472
I1
sS'replicate'
p473
I3
sS'interest'
p474
I1
sS'whoa'
p475
I1
sS'containers'
p476
I1
sS'blob'
p477
I1
sS'website'
p478
I2
sS'binary_data'
p479
I1
sS'worker'
p480
I1
sS'great'
p481
I4
sS'argument'
p482
I1
sS'there_'
p483
I1
sS'understand'
p484
I2
sS'boundlessgeo'
p485
I1
sS'personally'
p486
I2
sS'worked'
p487
I1
sS'look'
p488
I4
sS'launches'
p489
I1
sS'reliable'
p490
I2
sS'n'
p491
I2
sS'while'
p492
I2
sS'suppose'
p493
I2
sS'setuptools'
p494
I1
sS'error'
p495
I10
sS'fun'
p496
I1
sS'endpoints'
p497
I1
sS'elaborate'
p498
I1
sS'real'
p499
I3
sS'cons'
p500
I1
sS'recensement'
p501
I1
sS'reads'
p502
I1
sS'itself'
p503
I1
sS'im'
p504
I4
sS'experience'
p505
I1
sS'io'
p506
I3
sS'ready'
p507
I1
sS'id'
p508
I1
sS'containing'
p509
I1
sS'perform'
p510
I1
sS'things'
p511
I7
sS'trashing'
p512
I1
sS'complex'
p513
I2
sS'split'
p514
I1
sS'big'
p515
I1
sS'st_distancesphere'
p516
I1
sS'couple'
p517
I1
sS'templates'
p518
I1
sS'used'
p519
I4
sS'temporary'
p520
I1
sS'somethign'
p521
I1
sS'keys'
p522
I1
sS'yesterday'
p523
I1
sS'hand'
p524
I1
sS'viewing'
p525
I1
sS'moving'
p526
I1
sS'purpose'
p527
I2
sS'characters'
p528
I2
sS'stack'
p529
I1
sS'thoughts'
p530
I2
sS'crucible'
p531
I1
sS'database'
p532
I17
sS'failing'
p533
I2
sS'spent'
p534
I1
sS'picks'
p535
I1
sS'person'
p536
I3
sS'client'
p537
I6
sS'mother'
p538
I1
sS'entry'
p539
I1
sS'docker'
p540
I12
sS'800'
p541
I2
sS'self'
p542
I5
sS'know'
p543
I11
sS'sentence'
p544
I1
sS'twitter_bot'
p545
I1
sS'laptop'
p546
I2
sS'distribute'
p547
I1
sS'competitive'
p548
I1
sS'shape'
p549
I1
sS'thanks'
p550
I12
sS'questions'
p551
I2
sS'dopamine'
p552
I1
sS'yep'
p553
I1
sS'yes'
p554
I5
sS'yet'
p555
I3
sS'site'
p556
I2
sS'adding'
p557
I1
sS'unable'
p558
I1
sS'had'
p559
I8
sS'barack'
p560
I1
sS'trina'
p561
I2
sS'collections'
p562
I1
sS'easy'
p563
I4
sS'5d'
p564
I2
sS'consideration'
p565
I1
sS'has'
p566
I8
sS'gave'
p567
I1
sS'casting'
p568
I1
sS'intercom'
p569
I3
sS'showing'
p570
I1
sS'possible'
p571
I5
sS'biz'
p572
I1
sS'bit'
p573
I7
sS'unique'
p574
I2
sS'projects'
p575
I2
sS'desire'
p576
I1
sS'gifs'
p577
I1
sS'd'
p578
I16
sS'cooler'
p579
I1
sS'message'
p580
I10
sS'hunt'
p581
I1
sS'51'
p582
I1
sS'50'
p583
I1
sS'3033'
p584
I1
sS'specific'
p585
I2
sS'steps'
p586
I2
sS'arbitrary'
p587
I1
sS'environments'
p588
I1
sS'inclined'
p589
I1
sS'commandshift3'
p590
I1
sS'www'
p591
I5
sS'right'
p592
I6
sS'deal'
p593
I1
sS'people'
p594
I8
sS'sends'
p595
I2
sS'some'
p596
I11
sS'somehow'
p597
I2
sS'understood'
p598
I1
sS'20slack'
p599
I1
sS'scale'
p600
I2
sS'bottom'
p601
I1
sS'_right'
p602
I1
sS'pros'
p603
I1
sS'integration'
p604
I5
sS'comments'
p605
I2
sS'everything'
p606
I8
sS'slash'
p607
I3
sS'prod'
p608
I3
sS'minimal'
p609
I2
sS'_gb_'
p610
I1
sS'core'
p611
I1
sS'who'
p612
I7
sS'slackbot'
p613
I3
sS'processing'
p614
I3
sS'performant'
p615
I1
sS'squeamish'
p616
I1
sS'starring'
p617
I2
sS'become'
p618
I1
sS'post'
p619
I8
sS'super'
p620
I6
sS'by'
p621
I9
sS'karama'
p622
I1
sS'plug'
p623
I2
sS'census'
p624
I5
sS'consumption'
p625
I1
sS'anything'
p626
I4
sS'constraint'
p627
I2
sS'ids'
p628
I1
sS'page'
p629
I4
sS'ensure'
p630
I3
sS'own'
p631
I2
sS'messaging'
p632
I2
sS'defusedxml'
p633
I1
sS'slightly'
p634
I1
sS'book'
p635
I1
sS'automatically'
p636
I1
sS'aha'
p637
I1
sS'71'
p638
I1
sS'fobcbtd'
p639
I1
sS'overloads'
p640
I1
sS'into'
p641
I12
sS'float'
p642
I3
sS'bound'
p643
I3
sS'parsing'
p644
I2
sS'down'
p645
I2
sS'services'
p646
I1
sS'overkill'
p647
I1
sS'google'
p648
I6
sS'donated'
p649
I1
sS'next'
p650
I3
sS'gis'
p651
I1
sS'support'
p652
I1
sS'question'
p653
I6
sS'handles'
p654
I3
sS'long'
p655
I6
sS'why'
p656
I10
sS'gif'
p657
I2
sS'heroku'
p658
I5
sS'downloadable'
p659
I1
sS'way'
p660
I17
sS'reward'
p661
I1
sS'forward'
p662
I2
sS'quirky'
p663
I1
sS'heroky'
p664
I1
sS'blueprint'
p665
I1
sS'filer'
p666
I1
sS'head'
p667
I1
sS'medium'
p668
I3
sS'first_field'
p669
I1
sS'back'
p670
I1
sS'notifications'
p671
I2
sS'hear'
p672
I1
sS'emulates'
p673
I1
sS'hmmmmmmm'
p674
I1
sS'encoded'
p675
I2
sS'line'
p676
I12
sS'true'
p677
I4
sS'deployed'
p678
I1
sS'posted'
p679
I6
sS'info'
p680
I1
sS'responding'
p681
I2
sS'utf'
p682
I1
sS'builds'
p683
I1
sS'zork'
p684
I1
sS'inside'
p685
I1
sS'up'
p686
I8
sS'us'
p687
I4
sS'um'
p688
I1
sS'url'
p689
I8
sS'similar'
p690
I3
sS'clear'
p691
I1
sS'150'
p692
I1
sS'sometimes'
p693
I4
sS'gettweetlength'
p694
I1
sS'defined'
p695
I2
sS'doesn'
p696
I3
sS'single'
p697
I3
sS'chat'
p698
I3
sS'curious'
p699
I2
sS'awhile'
p700
I1
sS'annoying'
p701
I1
sS'distributions'
p702
I1
sS'check'
p703
I1
sS'no'
p704
I15
sS'malicious'
p705
I1
sS'when'
p706
I13
sS'application'
p707
I3
sS'build'
p708
I12
sS'interested'
p709
I2
sS'functionality'
p710
I4
sS'snice'
p711
I1
sS'becomes'
p712
I1
sS'test'
p713
I4
sS'tie'
p714
I1
sS'developers'
p715
I3
sS'company'
p716
I2
sS'nice'
p717
I7
sS'intend'
p718
I1
sS'users'
p719
I3
sS'necessity'
p720
I1
sS'welcome'
p721
I2
sS'problems'
p722
I1
sS'robots'
p723
I3
sS'occurred'
p724
I1
sS'helping'
p725
I1
sS'rested'
p726
I1
sS'weekend'
p727
I8
sS'structure'
p728
I3
sS'ago'
p729
I3
sS'e'
p730
I3
sS'algorithm'
p731
I1
sS'vice'
p732
I1
sS'required'
p733
I1
sS'together'
p734
I1
sS'tradeoff'
p735
I1
sS'time'
p736
I6
sS'far'
p737
I3
sS'requires'
p738
I1
sS'having'
p739
I4
sS'basically'
p740
I11
sS'essay'
p741
I1
sS'gt'
p742
I6
sS'lean'
p743
I1
sS'consul'
p744
I2
sS'peruse'
p745
I1
sS'results'
p746
I4
sS'totes'
p747
I1
sS'gc'
p748
I1
sS'skin'
p749
I1
sS'go'
p750
I7
sS'query'
p751
I2
sS'tweeted'
p752
I1
sS'issues'
p753
I5
sS'certainly'
p754
I1
sS'compose'
p755
I1
sS'flask'
p756
I1
sS'concerned'
p757
I1
sS'gigs'
p758
I1
sS'environment'
p759
I8
sS'0'
p760
I1
sS'uniqueness'
p761
I1
sS'runlevel'
p762
I1
sS'bsoup'
p763
I1
sS'include'
p764
I1
sS'quilts'
p765
I1
sS'dramatically'
p766
I1
sS'sent'
p767
I1
sS'psql'
p768
I1
sS'wished'
p769
I1
sS'string'
p770
I1
sS'outside'
p771
I1
sS'quora'
p772
I1
sS'webhook'
p773
I1
sS'putting'
p774
I1
sS'telling'
p775
I1
sS'trouble'
p776
I2
sS'wipe'
p777
I1
sS'cool'
p778
I9
sS'entire'
p779
I1
sS'level'
p780
I2
sS'did'
p781
I5
sS'turns'
p782
I1
sS'button'
p783
I2
sS'dig'
p784
I1
sS'posts'
p785
I1
sS'accidentally'
p786
I1
sS'try'
p787
I9
sS'planning'
p788
I1
sS'polling'
p789
I1
sS'team'
p790
I3
sS'quick'
p791
I2
sS'guy'
p792
I1
sS'deleting'
p793
I1
sS'yall'
p794
I1
sS'configurations'
p795
I1
sS'talked'
p796
I1
sS'says'
p797
I1
sS'dealing'
p798
I1
sS'wrestling'
p799
I1
sS'sign'
p800
I2
sS'cron'
p801
I3
sS'traveling'
p802
I1
sS'download'
p803
I1
sS'run'
p804
I7
sS'odd'
p805
I1
sS'port'
p806
I1
sS'append'
p807
I1
sS'giving'
p808
I1
sS'intergration'
p809
I1
sS'beautifulsoup'
p810
I5
sS'find'
p811
I1
sS'current'
p812
I1
sS'experiment'
p813
I1
sS'lazily'
p814
I1
sS'goes'
p815
I2
sS'shared'
p816
I1
sS'3d'
p817
I2
sS'hairy'
p818
I1
sS'transparency'
p819
I1
sS'exchange'
p820
I1
sS'learn'
p821
I1
sS'understanding'
p822
I1
sS'highly'
p823
I1
sS'explore'
p824
I1
sS'objects'
p825
I1
sS'let'
p826
I2
sS'sink'
p827
I1
sS'601823634957553664'
p828
I1
sS'safer'
p829
I1
sS'appears'
p830
I1
sS'wait'
p831
I2
sS'sending'
p832
I1
sS'convert'
p833
I2
sS'micah'
p834
I1
sS'incoming'
p835
I2
sS'canadian'
p836
I1
sS'receive'
p837
I1
sS'larger'
p838
I1
sS'fetch'
p839
I1
sS'queue'
p840
I2
sS'cssselect'
p841
I1
sS'suggestion'
p842
I1
sS'domains'
p843
I1
sS'implement'
p844
I5
sS'thats'
p845
I1
sS'_thumbsup_'
p846
I4
sS'named'
p847
I1
sS'useful'
p848
I4
sS'app'
p849
I9
sS'manage'
p850
I1
sS'prefer'
p851
I1
sS'integrations'
p852
I5
sS'api'
p853
I14
sS'_thinking_face_'
p854
I2
sS'cloud'
p855
I1
sS'everybody'
p856
I2
sS'use'
p857
I12
sS'crap'
p858
I1
sS'stream'
p859
I1
sS'working'
p860
I6
sS'sports'
p861
I2
sS'few'
p862
I3
sS'live'
p863
I2
sS'wondering'
p864
I1
sS'themselves'
p865
I1
sS'_one_'
p866
I1
sS'today'
p867
I2
sS'sort'
p868
I3
sS'pretty'
p869
I7
sS'clicking'
p870
I2
sS'share'
p871
I3
sS'dupes'
p872
I2
sS'getting'
p873
I4
sS'ooh'
p874
I1
sS'baby'
p875
I1
sS'ok'
p876
I3
sS'effort'
p877
I1
sS'easiest'
p878
I1
sS'customer'
p879
I1
sS'sample'
p880
I1
sS'account'
p881
I2
sS'latitude'
p882
I1
sS'challenge'
p883
I2
sS'package'
p884
I1
sS'pour'
p885
I1
sS'cat'
p886
I1
sS'soup'
p887
I1
sS'tag'
p888
I3
sS'values'
p889
I1
sS'leaderboard'
p890
I3
sS'making'
p891
I1
sS'excahnge'
p892
I1
sS'community_projects'
p893
I1
sS'regularly'
p894
I1
sS'crazy'
p895
I1
sS'figure'
p896
I1
sS'process'
p897
I4
sS'lock'
p898
I1
sS'awesome'
p899
I3
sS'117724460915'
p900
I1
sS'27dog'
p901
I2
sS'topic'
p902
I1
sS'heard'
p903
I1
sS'his'
p904
I1
sS'something'
p905
I16
sS'bones'
p906
I1
sS'stories'
p907
I1
sS'lxml'
p908
I12
sS'listened'
p909
I1
sS's3'
p910
I1
sS'means'
p911
I2
sS'253d'
p912
I4
sS'provisioning'
p913
I1
sS'write'
p914
I1
sS'attachment'
p915
I1
sS'sword'
p916
I1
sS'meenie'
p917
I1
sS'instead'
p918
I5
sS'_toot_'
p919
I1
sS'_slightly_smiling_face_'
p920
I5
sS'product'
p921
I1
sS'sillygwalio'
p922
I1
sS'140'
p923
I1
sS'may'
p924
I3
sS'neat'
p925
I2
sS'collection'
p926
I1
sS'mac'
p927
I1
sS'date'
p928
I2
sS'such'
p929
I2
sS'guys'
p930
I2
sS'_taco_'
p931
I2
sS'fromstring'
p932
I1
sS'giphys'
p933
I1
sS'liner'
p934
I1
sS'redundant'
p935
I1
sS'element'
p936
I1
sS'devs'
p937
I1
sS'switch'
p938
I2
sS'ones'
p939
I1
sS'_everyone_'
p940
I1
sS'allow'
p941
I1
sS'volunteers'
p942
I1
sS'talk'
p943
I1
sS'superscript'
p944
I3
sS'saturated'
p945
I1
sS'mute'
p946
I3
sS'indeed'
p947
I2
sS'course'
p948
I3
sS'c04sm6tax'
p949
I1
sS'looks'
p950
I3
sS'mentioned'
p951
I1
sS'still'
p952
I5
sS'bunch'
p953
I2
sS'1'
p954
I6
sS'monitor'
p955
I2
sS'maps'
p956
I5
sS'interesting'
p957
I2
sS'll'
p958
I9
sS'faves'
p959
I1
sS'benbrown'
p960
I1
sS'forms'
p961
I1
sS'platform'
p962
I1
sS'lt'
p963
I1
sS'offers'
p964
I2
sS'tweets'
p965
I2
sS'covered'
p966
I1
sS'main'
p967
I1
sS'2011'
p968
I1
sS'non'
p969
I1
sS'within'
p970
I4
sS'etree'
p971
I8
sS'postgres'
p972
I13
sS'__getitem__'
p973
I3
sS'python'
p974
I3
sS'docs'
p975
I5
sS'2015'
p976
I1
sS'practice'
p977
I2
sS'introduce'
p978
I2
sS'records'
p979
I2
sS'jjgaaafoakaa'
p980
I3
sS'front'
p981
I1
sS'now'
p982
I8
sS'day'
p983
I2
sS'articles'
p984
I1
sS'name'
p985
I3
sS'drop'
p986
I1
sS'blazing'
p987
I1
sS'stackexchange'
p988
I1
sS'subset'
p989
I1
sS'significantly'
p990
I1
sS'doing'
p991
I4
sS'eg'
p992
I2
sS'related'
p993
I5
sS'file_comment_added'
p994
I1
sS'happen'
p995
I2
sS'out'
p996
I16
sS'troll'
p997
I1
sS'j0hww'
p998
I3
sS'arguements'
p999
I1
sS'3rd'
p1000
I1
sS'furthermore'
p1001
I3
sS'slightly_smiling_face'
p1002
I1
sS'hhave'
p1003
I1
sS'looking'
p1004
I4
sS'contained'
p1005
I1
sS'geom'
p1006
I2
sS'producthunt'
p1007
I1
sS'internet'
p1008
I5
sS'suggesting'
p1009
I1
sS'ref'
p1010
I1
sS'correct'
p1011
I1
sS'red'
p1012
I1
sS'shows'
p1013
I1
sS'dataset'
p1014
I1
sS'state'
p1015
I2
sS'cars'
p1016
I2
sS'maintains'
p1017
I1
sS'mechanisms'
p1018
I1
sS'possibility'
p1019
I1
sS'quite'
p1020
I4
sS'completely'
p1021
I1
sS'orm'
p1022
I1
sS'complicated'
p1023
I4
sS'masks'
p1024
I1
sS'initialize'
p1025
I1
sS'grab'
p1026
I2
sS'care'
p1027
I1
sS'g'
p1028
I1
sS'geometry'
p1029
I6
sS'dunno'
p1030
I1
sS'route'
p1031
I1
sS'keep'
p1032
I6
sS'thing'
p1033
I8
sS'length'
p1034
I1
sS'think'
p1035
I18
sS'first'
p1036
I4
sS'wiki'
p1037
I5
sS'saving'
p1038
I1
sS'christoph'
p1039
I1
sS'flipping'
p1040
I1
sS'yourself'
p1041
I3
sS'improving'
p1042
I1
sS'fast'
p1043
I1
sS'sounds'
p1044
I3
sS'hehe'
p1045
I1
sS'lwqaaaf0hww'
p1046
I3
sS'constructing'
p1047
I1
sS'little'
p1048
I1
sS'management'
p1049
I1
sS'checked'
p1050
I1
sS'coooool'
p1051
I1
sS'data'
p1052
I16
sS'system'
p1053
I5
sS'remotely'
p1054
I2
sS'anyone'
p1055
I10
sS'their'
p1056
I6
sS'returns'
p1057
I1
sS'2'
p1058
I3
sS'friend'
p1059
I1
sS'gives'
p1060
I1
sS'mostly'
p1061
I1
sS'paas'
p1062
I2
sS'exactly'
p1063
I3
sS'lists'
p1064
I2
sS'asdecimal'
p1065
I3
sS'module'
p1066
I1
sS'dyno'
p1067
I3
sS'than'
p1068
I3
sS'specify'
p1069
I1
sS'10'
p1070
I2
sS'12'
p1071
I1
sS'unfortunately'
p1072
I1
sS'fwiw'
p1073
I1
sS'16'
p1074
I1
sS'r'
p1075
I1
sS'qilt'
p1076
I1
sS'were'
p1077
I2
sS'cards'
p1078
I2
sS'orgs'
p1079
I1
sS'counselor'
p1080
I1
sS'failover'
p1081
I1
sS'misunderstand'
p1082
I1
sS'browser'
p1083
I1
sS'files'
p1084
I2
sS'documentation'
p1085
I2
sS'false'
p1086
I2
sS'hashtags'
p1087
I2
sS'locations'
p1088
I2
sS'comfortable'
p1089
I1
sS'say'
p1090
I4
sS'style'
p1091
I1
sS'need'
p1092
I16
sS'mechanize'
p1093
I2
sS'saw'
p1094
I2
sS'any'
p1095
I17
sS'npmjs'
p1096
I1
sS'q'
p1097
I2
sS'able'
p1098
I4
sS'mills'
p1099
I1
sS'ideas'
p1100
I3
sS'mechanism'
p1101
I2
sS'instance'
p1102
I4
sS'potential'
p1103
I1
sS'take'
p1104
I4
sS'which'
p1105
I7
sS'channel'
p1106
I6
sS'sure'
p1107
I6
sS'multiple'
p1108
I3
sS'knew'
p1109
I1
sS'abut'
p1110
I1
sS'connected'
p1111
I2
sS'pleasure'
p1112
I1
sS'class'
p1113
I8
sS'42066'
p1114
I1
sS'especially'
p1115
I2
sS'won'
p1116
I3
sS'considered'
p1117
I1
sS'later'
p1118
I2
sS'request'
p1119
I2
sS'drive'
p1120
I1
sS'playing'
p1121
I3
sS'_actual_'
p1122
I1
sS'e4f6d23a3495'
p1123
I2
sS'uncle'
p1124
I1
sS'fact'
p1125
I2
sS'shop'
p1126
I1
sS'shot'
p1127
I1
sS'cheat'
p1128
I1
sS'text'
p1129
I4
sS'workshops'
p1130
I1
sS'anyway'
p1131
I2
sS'datetime'
p1132
I2
sS'connect'
p1133
I2
sS'spaces'
p1134
I2
sS'rough'
p1135
I1
sS'imagined'
p1136
I1
sS'geography'
p1137
I5
sS'xml'
p1138
I11
sS'slow'
p1139
I3
sS'based'
p1140
I2
sS'dice'
p1141
I1
sS'tire'
p1142
I1
sS'behind'
p1143
I1
sS'should'
p1144
I14
sS'terminal'
p1145
I1
sS'only'
p1146
I16
sS'going'
p1147
I2
sS'dict'
p1148
I1
sS'darrick'
p1149
I2
sS'local'
p1150
I7
sS'achieve'
p1151
I1
sS'meant'
p1152
I1
sS'handle'
p1153
I1
sS'_have'
p1154
I1
sS'get'
p1155
I16
sS'familiar'
p1156
I2
sS'2706'
p1157
I1
sS'pypi'
p1158
I2
sS'listener'
p1159
I1
sS'made'
p1160
I1
sS'geo'
p1161
I2
sS'regarding'
p1162
I2
sS'resource'
p1163
I1
sS'places'
p1164
I2
sS'busiest'
p1165
I1
sS'postgis'
p1166
I10
sS'morning'
p1167
I3
sS'stuff'
p1168
I5
sS'she'
p1169
I1
sS'c2fmlubeu'
p1170
I1
sS'worries'
p1171
I1
sS'tanayj'
p1172
I1
sS'finishing'
p1173
I1
sS'where'
p1174
I6
sS'22wish'
p1175
I2
sS'obfuscated'
p1176
I1
sS'guessing'
p1177
I1
sS'computed'
p1178
I1
sS'j2'
p1179
I1
sS'pyslackers'
p1180
I1
sS'computer'
p1181
I1
sS'anyways'
p1182
I1
sS'configures'
p1183
I1
sS'wonder'
p1184
I1
sS'fails'
p1185
I1
sS'_database_'
p1186
I1
sS'attempting'
p1187
I1
sS'ways'
p1188
I3
sS'sites'
p1189
I2
sS'its'
p1190
I5
sS'boundaries'
p1191
I1
sS'3'
p1192
I2
sS'bureau'
p1193
I1
sS'routing'
p1194
I1
sS'correctly'
p1195
I1
sS'between'
p1196
I1
sS'import'
p1197
I5
sS'checks'
p1198
I1
sS'parent'
p1199
I1
sS'darpa'
p1200
I1
sS'points'
p1201
I6
sS'systemd'
p1202
I4
sS'js'
p1203
I1
sS'job'
p1204
I1
sS'configuration'
p1205
I2
sS'come'
p1206
I1
sS'jon'
p1207
I2
sS'thank'
p1208
I1
sS'actual'
p1209
I2
sS'commands'
p1210
I1
sS'figured'
p1211
I2
sS'installation'
p1212
I2
sS'buster'
p1213
I1
sS'plugin'
p1214
I5
sS'addicitve'
p1215
I1
sS'many'
p1216
I3
sS'taking'
p1217
I2
sS'parts'
p1218
I2
sS'etc'
p1219
I2
sS'_open_mouth_'
p1220
I1
sS'section'
p1221
I1
sS'comes'
p1222
I2
sS'otherwise'
p1223
I1
sS'comment'
p1224
I1
sS'co'
p1225
I2
sS'deserialization'
p1226
I1
sS'ca'
p1227
I1
sS'robotics'
p1228
I1
sS'period'
p1229
I1
sS'deploybott'
p1230
I1
sS'toolbelt'
p1231
I1
sS'varietypack'
p1232
I1
sS'learning'
p1233
I1
sS'table'
p1234
I1
sS'bizarre'
p1235
I1
sS'poll'
p1236
I2
sS'login'
p1237
I1
sS'subscribed'
p1238
I1
sS'powered'
p1239
I1
sS'locally'
p1240
I7
sS'informed'
p1241
I1
sS'shortening'
p1242
I1
sS'json'
p1243
I2
sS'certain'
p1244
I4
sS'direction'
p1245
I1
sS'both'
p1246
I1
sS'happyfoxchat'
p1247
I1
sS'tiger'
p1248
I1
sS'hmm'
p1249
I2
sS'external'
p1250
I1
sS'suspected'
p1251
I1
sS'irrelevant'
p1252
I1
sS'former'
p1253
I1
sS'those'
p1254
I7
sS'case'
p1255
I3
sS'multi'
p1256
I1
sS'2016'
p1257
I1
sS'latitute'
p1258
I1
sS'vanilla'
p1259
I1
sS'value'
p1260
I1
sS'will'
p1261
I3
sS'cast'
p1262
I2
sS'situation'
p1263
I1
sS'frustrating'
p1264
I1
sS'statcan'
p1265
I1
sS've'
p1266
I12
sS'wouldn'
p1267
I4
sS'them'
p1268
I8
sS'sleeping'
p1269
I1
sS'parse'
p1270
I2
sS'vs'
p1271
I1
sS'technology'
p1272
I1
sS'__init__'
p1273
I1
sS'binary'
p1274
I2
sS'different'
p1275
I7
sS'respondly'
p1276
I1
sS'locking'
p1277
I1
sS'cross'
p1278
I2
sS'same'
p1279
I7
sS'initials'
p1280
I1
sS'html'
p1281
I5
sS'auto'
p1282
I2
sS'party'
p1283
I2
sS'gets'
p1284
I1
sS'events'
p1285
I6
sS'status'
p1286
I1
sS'http'
p1287
I16
sS'urls'
p1288
I1
sS'ios'
p1289
I1
sS'cheers'
p1290
I1
sS'running'
p1291
I10
sS'favorites'
p1292
I1
sS'changing'
p1293
I1
sS'totally'
p1294
I3
sS'bots'
p1295
I7
sS'off'
p1296
I4
sS'modes'
p1297
I1
sS'gifstream'
p1298
I2
sS'well'
p1299
I11
sS'banging'
p1300
I1
sS'_disappointed_'
p1301
I1
sS'without'
p1302
I3
sS'solve'
p1303
I3
sS'binaries'
p1304
I2
sS'sec'
p1305
I2
sS'less'
p1306
I3
sS'being'
p1307
I1
sS'hands'
p1308
I1
sS'unofficial'
p1309
I1
sS'sources'
p1310
I2
sS'stored'
p1311
I1
sS'kill'
p1312
I1
sS'40slackhq'
p1313
I1
sS'web'
p1314
I1
sS'staging'
p1315
I8
sS'legitimately'
p1316
I1
sS'thinking'
p1317
I1
sS'seems'
p1318
I3
sS'except'
p1319
I1
sS'desktop'
p1320
I1
sS'gohlke'
p1321
I1
sS'lets'
p1322
I3
sS'other'
p1323
I8
sS'combine'
p1324
I2
sS'4'
p1325
I4
sS'multilinestring'
p1326
I1
sS'match'
p1327
I1
sS'scheduled'
p1328
I1
sS'around'
p1329
I4
sS'read'
p1330
I5
sS'crushed'
p1331
I1
sS'gonna'
p1332
I2
sS'awol'
p1333
I1
sS'built'
p1334
I11
sS'whatever'
p1335
I1
sS'listening'
p1336
I3
sS'deployment'
p1337
I1
sS'amp'
p1338
I3
sS'walk'
p1339
I1
sS'helpful'
p1340
I1
sS'server'
p1341
I7
sS'either'
p1342
I4
sS'always'
p1343
I1
sS'output'
p1344
I1
sS'starred'
p1345
I1
sS'works'
p1346
I4
sS'decimal'
p1347
I3
sS'parity'
p1348
I1
sS'because'
p1349
I13
sS'xpath'
p1350
I1
sS'twitter'
p1351
I18
sS'library'
p1352
I1
sS'proper'
p1353
I1
sS'home'
p1354
I1
sS'yesss'
p1355
I1
sS'happens'
p1356
I2
sS'5363b86cb82d'
p1357
I1
sS'slice'
p1358
I1
sS'avoid'
p1359
I1
sS'recorded'
p1360
I1
sS'overly'
p1361
I2
sS'does'
p1362
I8
sS'provides'
p1363
I1
sS'assuming'
p1364
I1
sS'biased'
p1365
I1
sS'accessing'
p1366
I2
sS'broken'
p1367
I1
sS'although'
p1368
I3
sS'5b'
p1369
I2
sS'imaginary'
p1370
I2
sS'throw'
p1371
I1
sS'simpler'
p1372
I3
sS'src'
p1373
I2
sS'crafting'
p1374
I2
sS'central'
p1375
I1
sS'billing'
p1376
I1
sS'world'
p1377
I1
sS'oh'
p1378
I10
sS'column'
p1379
I4
sS'practical'
p1380
I2
sS'fear'
p1381
I1
sS'statement'
p1382
I1
sS'os'
p1383
I2
sS'referenced'
p1384
I1
sS'marshmallow'
p1385
I2
sS'sillygwailo'
p1386
I3
sS'previously'
p1387
I1
sS'flavors'
p1388
I1
sS'wadl'
p1389
I1
sS'tiny'
p1390
I1
sS'actually'
p1391
I6
sS'godsend'
p1392
I1
sS'log'
p1393
I1
sS'area'
p1394
I1
sS'apps'
p1395
I3
sS'hey'
p1396
I4
sS'lol'
p1397
I3
sS'noticed'
p1398
I1
sS'start'
p1399
I1
sS'much'
p1400
I8
sS'development'
p1401
I2
sS'lot'
p1402
I1
sS'heh'
p1403
I7
sS'jinx'
p1404
I1
sS'function'
p1405
I2
sS'apis'
p1406
I1
sS'idea'
p1407
I2
sS'beginners'
p1408
I1
sS'hi'
p1409
I1
sS'crontab'
p1410
I3
sS'automated'
p1411
I2
sS'oauth'
p1412
I1
sS'competetive'
p1413
I1
sS'trying'
p1414
I10
sS'he'
p1415
I1
sS'datasets'
p1416
I1
sS'worldofworkcraft'
p1417
I2
sS'whether'
p1418
I1
sS'wish'
p1419
I6
sS'j'
p1420
I1
sS'signed'
p1421
I1
sS'placed'
p1422
I1
sS'limit'
p1423
I2
sS'vm'
p1424
I1
sS'problem'
p1425
I6
sS'pm'
p1426
I2
sS'minutes'
p1427
I1
sS'agree'
p1428
I1
sS'expect'
p1429
I1
sS'faving'
p1430
I1
sS'ai'
p1431
I1
sS'ah'
p1432
I3
sS'am'
p1433
I9
sS'al'
p1434
I1
sS'general'
p1435
I2
sS'onboarding'
p1436
I1
sS'intro'
p1437
I1
sS'at'
p1438
I17
sS'file'
p1439
I3
sS'our'
p1440
I5
sS'pip'
p1441
I2
sS'judgemental'
p1442
I1
sS'are'
p1443
I18
sS'fill'
p1444
I1
sS'again'
p1445
I2
sS'maybe'
p1446
I3
sS'44'
p1447
I1
sS'storage'
p1448
I3
sS'event'
p1449
I3
sS'st_makepoint'
p1450
I2
sS'valid'
p1451
I1
sS'spatial'
p1452
I1
sS'canada'
p1453
I1
sS'repeat'
p1454
I1
sS'star'
p1455
I2
sS'separate'
p1456
I2
sS'stab'
p1457
I1
sS'else'
p1458
I3
sS'friends'
p1459
I1
sS'missed'
p1460
I1
sS'building'
p1461
I1
sS'validation'
p1462
I1
sS'remote'
p1463
I1
sS'definintely'
p1464
I1
sS'baker'
p1465
I1
sS'wifi'
p1466
I1
sS'second_field'
p1467
I1
sS'websites'
p1468
I1
sS'hello'
p1469
I3
sS'portion'
p1470
I1
sS'u'
p1471
I1
sS'token'
p1472
I6
sS'alright'
p1473
I1
sS'once'
p1474
I1
sS'integrates'
p1475
I1
stp1476
Rp1477
(dp1478
S'default'
p1479
I0
sb.I3593
.